; Function Attrs: mustprogress uwtable
define internal void @"_ZZN7rocksdb10BlobSource12PinOwnedBlobEPSt10unique_ptrINS_12BlobContentsESt14default_deleteIS2_EEPNS_13PinnableSliceEEN3$_08__invokeEPvSA_"(ptr noundef %arg1, ptr nocapture readnone %0) #2 align 2 personality ptr @__gxx_personality_v0 {
entry:
  %isnull.i = icmp eq ptr %arg1, null
  br i1 %isnull.i, label %"_ZZN7rocksdb10BlobSource12PinOwnedBlobEPSt10unique_ptrINS_12BlobContentsESt14default_deleteIS2_EEPNS_13PinnableSliceEENK3$_0clEPvSA_.exit", label %delete.notnull.i

delete.notnull.i:                                 ; preds = %entry
  %add.ptr.i.i.i.i.i.i.i = getelementptr inbounds i8, ptr %arg1, i64 8
  %1 = load ptr, ptr %add.ptr.i.i.i.i.i.i.i, align 8
  %cmp.not.i.i.i = icmp eq ptr %1, null
  br i1 %cmp.not.i.i.i, label %_ZN7rocksdb12BlobContentsD2Ev.exit.i, label %if.then.i.i.i

if.then.i.i.i:                                    ; preds = %delete.notnull.i
  %2 = load ptr, ptr %arg1, align 8
  %tobool.not.i.i.i.i = icmp eq ptr %2, null
  br i1 %tobool.not.i.i.i.i, label %delete.notnull.i.i.i.i, label %if.then.i.i.i.i

if.then.i.i.i.i:                                  ; preds = %if.then.i.i.i
  %vtable.i.i.i.i = load ptr, ptr %2, align 8
  %vfn.i.i.i.i = getelementptr inbounds i8, ptr %vtable.i.i.i.i, i64 160
  %3 = load ptr, ptr %vfn.i.i.i.i, align 8
  invoke void %3(ptr noundef nonnull align 8 dereferenceable(32) %2, ptr noundef nonnull %1)
          to label %_ZN7rocksdb12BlobContentsD2Ev.exit.i unwind label %terminate.lpad.i.i.i

delete.notnull.i.i.i.i:                           ; preds = %if.then.i.i.i
  tail call void @_ZdaPv(ptr noundef nonnull %1) #19
  br label %_ZN7rocksdb12BlobContentsD2Ev.exit.i

terminate.lpad.i.i.i:                             ; preds = %if.then.i.i.i.i
  %4 = landingpad { ptr, i32 }
          catch ptr null
  %5 = extractvalue { ptr, i32 } %4, 0
  tail call void @__clang_call_terminate(ptr %5) #23
  unreachable

_ZN7rocksdb12BlobContentsD2Ev.exit.i:             ; preds = %delete.notnull.i.i.i.i, %if.then.i.i.i.i, %delete.notnull.i
  tail call void @_ZdlPv(ptr noundef nonnull %arg1) #19
  br label %"_ZZN7rocksdb10BlobSource12PinOwnedBlobEPSt10unique_ptrINS_12BlobContentsESt14default_deleteIS2_EEPNS_13PinnableSliceEENK3$_0clEPvSA_.exit"

"_ZZN7rocksdb10BlobSource12PinOwnedBlobEPSt10unique_ptrINS_12BlobContentsESt14default_deleteIS2_EEPNS_13PinnableSliceEENK3$_0clEPvSA_.exit": ; preds = %entry, %_ZN7rocksdb12BlobContentsD2Ev.exit.i
  ret void
}